target datalayout = "e-m:e-p270:32:32-p271:32:32-p272:64:64-i64:64-i128:128-f80:128-n8:16:32:64-S128"
target triple = "x86_64-pc-linux-gnu"

%struct.tsi_peer_property = type { ptr, %struct.anon }
%struct.anon = type { ptr, i64 }
%struct.tsi_peer = type { ptr, i64 }

; Function Attrs: mustprogress nounwind uwtable
define void @_Z22tsi_init_peer_propertyv(ptr dead_on_unwind noalias writable sret(%struct.tsi_peer_property) align 8 %0) #4 {
  call void @llvm.memset.p0.i64(ptr align 8 %0, i8 0, i64 24, i1 false)
  ret void
}

; Function Attrs: mustprogress uwtable
define void @_Z26tsi_peer_property_destructP17tsi_peer_property(ptr noundef %0) #5 {
  %2 = alloca ptr, align 8
  %3 = alloca %struct.tsi_peer_property, align 8
  store ptr %0, ptr %2, align 8, !tbaa !69
  %4 = load ptr, ptr %2, align 8, !tbaa !69
  %5 = getelementptr inbounds nuw %struct.tsi_peer_property, ptr %4, i32 0, i32 0
  %6 = load ptr, ptr %5, align 8, !tbaa !71
  %7 = icmp ne ptr %6, null
  br i1 %7, label %8, label %12

8:                                                ; preds = %1
  %9 = load ptr, ptr %2, align 8, !tbaa !69
  %10 = getelementptr inbounds nuw %struct.tsi_peer_property, ptr %9, i32 0, i32 0
  %11 = load ptr, ptr %10, align 8, !tbaa !71
  call void @gpr_free(ptr noundef %11)
  br label %12

12:                                               ; preds = %8, %1
  %13 = load ptr, ptr %2, align 8, !tbaa !69
  %14 = getelementptr inbounds nuw %struct.tsi_peer_property, ptr %13, i32 0, i32 1
  %15 = getelementptr inbounds nuw %struct.anon, ptr %14, i32 0, i32 0
  %16 = load ptr, ptr %15, align 8, !tbaa !74
  %17 = icmp ne ptr %16, null
  br i1 %17, label %18, label %23

18:                                               ; preds = %12
  %19 = load ptr, ptr %2, align 8, !tbaa !69
  %20 = getelementptr inbounds nuw %struct.tsi_peer_property, ptr %19, i32 0, i32 1
  %21 = getelementptr inbounds nuw %struct.anon, ptr %20, i32 0, i32 0
  %22 = load ptr, ptr %21, align 8, !tbaa !74
  call void @gpr_free(ptr noundef %22)
  br label %23

23:                                               ; preds = %18, %12
  call void @llvm.lifetime.start.p0(i64 24, ptr %3) #3
  call void @_Z22tsi_init_peer_propertyv(ptr dead_on_unwind writable sret(%struct.tsi_peer_property) align 8 %3)
  %24 = load ptr, ptr %2, align 8, !tbaa !69
  call void @llvm.memcpy.p0.p0.i64(ptr align 8 %24, ptr align 8 %3, i64 24, i1 false), !tbaa.struct !75
  call void @llvm.lifetime.end.p0(i64 24, ptr %3) #3
  ret void
}

; Function Attrs: mustprogress uwtable
define internal void @_ZL30tsi_peer_destroy_list_propertyP17tsi_peer_propertym(ptr noundef %0, i64 noundef %1) #5 {
  %3 = alloca ptr, align 8
  %4 = alloca i64, align 8
  %5 = alloca i64, align 8
  store ptr %0, ptr %3, align 8, !tbaa !69
  store i64 %1, ptr %4, align 8, !tbaa !45
  call void @llvm.lifetime.start.p0(i64 8, ptr %5) #3
  store i64 0, ptr %5, align 8, !tbaa !45
  br label %6

6:                                                ; preds = %14, %2
  %7 = load i64, ptr %5, align 8, !tbaa !45
  %8 = load i64, ptr %4, align 8, !tbaa !45
  %9 = icmp ult i64 %7, %8
  br i1 %9, label %10, label %17

10:                                               ; preds = %6
  %11 = load ptr, ptr %3, align 8, !tbaa !69
  %12 = load i64, ptr %5, align 8, !tbaa !45
  %13 = getelementptr inbounds nuw %struct.tsi_peer_property, ptr %11, i64 %12
  call void @_Z26tsi_peer_property_destructP17tsi_peer_property(ptr noundef %13)
  br label %14

14:                                               ; preds = %10
  %15 = load i64, ptr %5, align 8, !tbaa !45
  %16 = add i64 %15, 1
  store i64 %16, ptr %5, align 8, !tbaa !45
  br label %6, !llvm.loop !79

17:                                               ; preds = %6
  %18 = load ptr, ptr %3, align 8, !tbaa !69
  call void @gpr_free(ptr noundef %18)
  call void @llvm.lifetime.end.p0(i64 8, ptr %5) #3
  ret void
}

; Function Attrs: mustprogress uwtable
define void @_Z17tsi_peer_destructP8tsi_peer(ptr noundef %0) #5 {
  %2 = alloca ptr, align 8
  store ptr %0, ptr %2, align 8, !tbaa !38
  %3 = load ptr, ptr %2, align 8, !tbaa !38
  %4 = icmp eq ptr %3, null
  br i1 %4, label %5, label %6

5:                                                ; preds = %1
  br label %23

6:                                                ; preds = %1
  %7 = load ptr, ptr %2, align 8, !tbaa !38
  %8 = getelementptr inbounds nuw %struct.tsi_peer, ptr %7, i32 0, i32 0
  %9 = load ptr, ptr %8, align 8, !tbaa !76
  %10 = icmp ne ptr %9, null
  br i1 %10, label %11, label %20

11:                                               ; preds = %6
  %12 = load ptr, ptr %2, align 8, !tbaa !38
  %13 = getelementptr inbounds nuw %struct.tsi_peer, ptr %12, i32 0, i32 0
  %14 = load ptr, ptr %13, align 8, !tbaa !76
  %15 = load ptr, ptr %2, align 8, !tbaa !38
  %16 = getelementptr inbounds nuw %struct.tsi_peer, ptr %15, i32 0, i32 1
  %17 = load i64, ptr %16, align 8, !tbaa !78
  call void @_ZL30tsi_peer_destroy_list_propertyP17tsi_peer_propertym(ptr noundef %14, i64 noundef %17)
  %18 = load ptr, ptr %2, align 8, !tbaa !38
  %19 = getelementptr inbounds nuw %struct.tsi_peer, ptr %18, i32 0, i32 0
  store ptr null, ptr %19, align 8, !tbaa !76
  br label %20

20:                                               ; preds = %11, %6
  %21 = load ptr, ptr %2, align 8, !tbaa !38
  %22 = getelementptr inbounds nuw %struct.tsi_peer, ptr %21, i32 0, i32 1
  store i64 0, ptr %22, align 8, !tbaa !78
  br label %23

23:                                               ; preds = %20, %5
  ret void
}