; Function Attrs: mustprogress uwtable
define void @_Z17tsi_peer_destructP8tsi_peer(ptr noundef %0) local_unnamed_addr #4 {
  %2 = icmp eq ptr %0, null
  br i1 %2, label %18, label %3

3:                                                ; preds = %1
  %4 = load ptr, ptr %0, align 8, !tbaa !50
  %.not = icmp eq ptr %4, null
  br i1 %.not, label %16, label %5

5:                                                ; preds = %3
  %6 = getelementptr inbounds nuw i8, ptr %0, i64 8
  %7 = load i64, ptr %6, align 8, !tbaa !53
  %.not.i = icmp eq i64 %7, 0
  br i1 %.not.i, label %_ZL30tsi_peer_destroy_list_propertyP17tsi_peer_propertym.exit, label %.lr.ph.i

.lr.ph.i:                                         ; preds = %5, %_Z26tsi_peer_property_destructP17tsi_peer_property.exit.i
  %.05.i = phi i64 [ %15, %_Z26tsi_peer_property_destructP17tsi_peer_property.exit.i ], [ 0, %5 ]
  %8 = getelementptr inbounds nuw %struct.tsi_peer_property, ptr %4, i64 %.05.i
  %9 = load ptr, ptr %8, align 8, !tbaa !46
  %.not.i.i = icmp eq ptr %9, null
  br i1 %.not.i.i, label %11, label %10

10:                                               ; preds = %.lr.ph.i
  tail call void @gpr_free(ptr noundef nonnull %9)
  br label %11

11:                                               ; preds = %10, %.lr.ph.i
  %12 = getelementptr inbounds nuw i8, ptr %8, i64 8
  %13 = load ptr, ptr %12, align 8, !tbaa !49
  %.not6.i.i = icmp eq ptr %13, null
  br i1 %.not6.i.i, label %_Z26tsi_peer_property_destructP17tsi_peer_property.exit.i, label %14

14:                                               ; preds = %11
  tail call void @gpr_free(ptr noundef nonnull %13)
  br label %_Z26tsi_peer_property_destructP17tsi_peer_property.exit.i

_Z26tsi_peer_property_destructP17tsi_peer_property.exit.i: ; preds = %14, %11
  tail call void @llvm.memset.p0.i64(ptr noundef nonnull align 8 dereferenceable(24) %8, i8 0, i64 24, i1 false)
  %15 = add nuw i64 %.05.i, 1
  %exitcond.not.i = icmp eq i64 %15, %7
  br i1 %exitcond.not.i, label %_ZL30tsi_peer_destroy_list_propertyP17tsi_peer_propertym.exit, label %.lr.ph.i, !llvm.loop !54

_ZL30tsi_peer_destroy_list_propertyP17tsi_peer_propertym.exit: ; preds = %_Z26tsi_peer_property_destructP17tsi_peer_property.exit.i, %5
  tail call void @gpr_free(ptr noundef nonnull %4)
  store ptr null, ptr %0, align 8, !tbaa !50
  br label %16

16:                                               ; preds = %_ZL30tsi_peer_destroy_list_propertyP17tsi_peer_propertym.exit, %3
  %17 = getelementptr inbounds nuw i8, ptr %0, i64 8
  store i64 0, ptr %17, align 8, !tbaa !53
  br label %18

18:                                               ; preds = %1, %16
  ret void
}